(ccopy_reg
_reconstructor
p0
(corigami_utils
vhelix_vbase_to_nucleotide
p1
c__builtin__
object
p2
Ntp3
Rp4
(dp5
S'strand_count'
p6
I0
sS'nuc_count'
p7
I0
sS'_stap'
p8
(dp9
(I1
I34
tp10
(I0
(lp11
I18
atp12
s(I1
I21
tp13
(I0
(lp14
I31
atp15
s(I0
I27
tp16
(I1
(lp17
I58
atp18
s(I0
I47
tp19
(I1
(lp20
I78
atp21
s(I0
I20
tp22
(I1
(lp23
I51
atp24
s(I1
I26
tp25
(I0
(lp26
I26
atp27
s(I0
I14
tp28
(I1
(lp29
I45
atp30
s(I1
I48
tp31
(I0
(lp32
I4
atp33
s(I1
I46
tp34
(I0
(lp35
I6
atp36
s(I1
I17
tp37
(I0
(lp38
I35
atp39
s(I1
I15
tp40
(I0
(lp41
I37
atp42
s(I0
I49
tp43
(I1
(lp44
I80
atp45
s(I1
I37
tp46
(I0
(lp47
I15
atp48
s(I0
I43
tp49
(I1
(lp50
I74
atp51
s(I0
I16
tp52
(I1
(lp53
I47
atp54
s(I0
I36
tp55
(I1
(lp56
I67
atp57
s(I1
I42
tp58
(I0
(lp59
I10
atp60
s(I1
I29
tp61
(I0
(lp62
I23
atp63
s(I1
I11
tp64
(I0
(lp65
I41
atp66
s(I1
I33
tp67
(I0
(lp68
I19
atp69
s(I1
I20
tp70
(I0
(lp71
I32
atp72
s(I0
I28
tp73
(I1
(lp74
I59
atp75
s(I0
I32
tp76
(I1
(lp77
I63
atp78
s(I0
I21
tp79
(I1
(lp80
I52
atp81
s(I1
I25
tp82
(I0
(lp83
I27
atp84
s(I0
I15
tp85
(I1
(lp86
I46
atp87
s(I1
I45
tp88
(I0
(lp89
I7
atp90
s(I1
I16
tp91
(I0
(lp92
I36
atp93
s(I0
I24
tp94
(I1
(lp95
I55
atp96
s(I1
I14
tp97
(I0
(lp98
I38
atp99
s(I0
I50
tp100
(I1
(lp101
I81
atp102
s(I1
I36
tp103
(I0
(lp104
I16
atp105
s(I0
I44
tp106
(I1
(lp107
I75
atp108
s(I0
I17
tp109
(I1
(lp110
I48
atp111
s(I0
I11
tp112
(I1
(lp113
I42
atp114
s(I1
I51
tp115
(I0
(lp116
I1
atp117
s(I0
I37
tp118
(I1
(lp119
I68
atp120
s(I1
I41
tp121
(I0
(lp122
I11
atp123
s(I1
I28
tp124
(I0
(lp125
I24
atp126
s(I1
I32
tp127
(I0
(lp128
I20
atp129
s(I0
I40
tp130
(I1
(lp131
I71
atp132
s(I0
I29
tp133
(I1
(lp134
I60
atp135
s(I0
I33
tp136
(I1
(lp137
I64
atp138
s(I0
I22
tp139
(I1
(lp140
I53
atp141
s(I1
I24
tp142
(I0
(lp143
I28
atp144
s(I1
I44
tp145
(I0
(lp146
I8
atp147
s(I1
I23
tp148
(I0
(lp149
I29
atp150
s(I0
I25
tp151
(I1
(lp152
I56
atp153
s(I1
I13
tp154
(I0
(lp155
I39
atp156
s(I0
I51
tp157
(I1
(lp158
I82
atp159
s(I0
I45
tp160
(I1
(lp161
I76
atp162
s(I0
I18
tp163
(I1
(lp164
I49
atp165
s(I0
I12
tp166
(I1
(lp167
I43
atp168
s(I1
I50
tp169
(I0
(lp170
I2
atp171
s(I0
I38
tp172
(I1
(lp173
I69
atp174
s(I1
I40
tp175
(I0
(lp176
I12
atp177
s(I1
I19
tp178
(I0
(lp179
I33
atp180
s(I1
I39
tp181
(I0
(lp182
I13
atp183
s(I0
I41
tp184
(I1
(lp185
I72
atp186
s(I0
I30
tp187
(I1
(lp188
I61
atp189
s(I0
I34
tp190
(I1
(lp191
I65
atp192
s(I0
I23
tp193
(I1
(lp194
I54
atp195
s(I1
I31
tp196
(I0
(lp197
I21
atp198
s(I1
I35
tp199
(I0
(lp200
I17
atp201
s(I1
I22
tp202
(I0
(lp203
I30
atp204
s(I0
I26
tp205
(I1
(lp206
I57
atp207
s(I1
I12
tp208
(I0
(lp209
I40
atp210
s(I0
I52
tp211
(I1
(lp212
I83
atp213
s(I0
I46
tp214
(I1
(lp215
I77
atp216
s(I0
I19
tp217
(I1
(lp218
I50
atp219
s(I1
I27
tp220
(I0
(lp221
I25
atp222
s(I0
I13
tp223
(I1
(lp224
I44
atp225
s(I1
I49
tp226
(I0
(lp227
I3
atp228
s(I0
I39
tp229
(I1
(lp230
I70
atp231
s(I1
I47
tp232
(I0
(lp233
I5
atp234
s(I1
I18
tp235
(I0
(lp236
I34
atp237
s(I0
I48
tp238
(I1
(lp239
I79
atp240
s(I1
I38
tp241
(I0
(lp242
I14
atp243
s(I0
I42
tp244
(I1
(lp245
I73
atp246
s(I0
I31
tp247
(I1
(lp248
I62
atp249
s(I0
I35
tp250
(I1
(lp251
I66
atp252
s(I1
I43
tp253
(I0
(lp254
I9
atp255
s(I1
I30
tp256
(I0
(lp257
I22
atp258
s(I1
I52
tp259
(I0
(lp260
I0
atp261
ssS'_scaf'
p262
(dp263
(I1
I34
tp264
(I2
(lp265
I88
atp266
s(I1
I21
tp267
(I2
(lp268
I159
atp269
s(I0
I27
tp270
(I2
(lp271
I132
atp272
s(I0
I47
tp273
(I2
(lp274
I112
atp275
s(I0
I20
tp276
(I2
(lp277
I139
atp278
s(I1
I26
tp279
(I2
(lp280
I164
atp281
s(I0
I14
tp282
(I2
(lp283
I145
atp284
s(I1
I48
tp285
(I2
(lp286
I102
atp287
s(I1
I46
tp288
(I2
(lp289
I100
atp290
s(I1
I17
tp291
(I2
(lp292
I155
atp293
s(I1
I15
tp294
(I2
(lp295
I153
atp296
s(I0
I49
tp297
(I2
(lp298
I110
atp299
s(I1
I37
tp300
(I2
(lp301
I91
atp302
s(I0
I43
tp303
(I2
(lp304
I116
atp305
s(I0
I16
tp306
(I2
(lp307
I143
atp308
s(I0
I36
tp309
(I2
(lp310
I123
atp311
s(I1
I42
tp312
(I2
(lp313
I96
atp314
s(I1
I29
tp315
(I2
(lp316
I167
atp317
s(I1
I11
tp318
(I2
(lp319
I149
atp320
s(I1
I33
tp321
(I2
(lp322
I87
atp323
s(I1
I20
tp324
(I2
(lp325
I158
atp326
s(I0
I28
tp327
(I2
(lp328
I131
atp329
s(I0
I32
tp330
(I2
(lp331
I127
atp332
s(I0
I21
tp333
(I2
(lp334
I138
atp335
s(I1
I25
tp336
(I2
(lp337
I163
atp338
s(I0
I15
tp339
(I2
(lp340
I144
atp341
s(I1
I45
tp342
(I2
(lp343
I99
atp344
s(I1
I16
tp345
(I2
(lp346
I154
atp347
s(I0
I24
tp348
(I2
(lp349
I135
atp350
s(I1
I14
tp351
(I2
(lp352
I152
atp353
s(I0
I50
tp354
(I2
(lp355
I109
atp356
s(I1
I36
tp357
(I2
(lp358
I90
atp359
s(I0
I44
tp360
(I2
(lp361
I115
atp362
s(I0
I17
tp363
(I2
(lp364
I142
atp365
s(I0
I11
tp366
(I2
(lp367
I148
atp368
s(I1
I51
tp369
(I2
(lp370
I105
atp371
s(I0
I37
tp372
(I2
(lp373
I122
atp374
s(I1
I41
tp375
(I2
(lp376
I95
atp377
s(I1
I28
tp378
(I2
(lp379
I166
atp380
s(I1
I32
tp381
(I2
(lp382
I86
atp383
s(I0
I40
tp384
(I2
(lp385
I119
atp386
s(I0
I29
tp387
(I2
(lp388
I130
atp389
s(I0
I33
tp390
(I2
(lp391
I126
atp392
s(I0
I22
tp393
(I2
(lp394
I137
atp395
s(I1
I24
tp396
(I2
(lp397
I162
atp398
s(I1
I44
tp399
(I2
(lp400
I98
atp401
s(I1
I23
tp402
(I2
(lp403
I161
atp404
s(I0
I25
tp405
(I2
(lp406
I134
atp407
s(I1
I13
tp408
(I2
(lp409
I151
atp410
s(I0
I51
tp411
(I2
(lp412
I108
atp413
s(I0
I45
tp414
(I2
(lp415
I114
atp416
s(I0
I18
tp417
(I2
(lp418
I141
atp419
s(I0
I12
tp420
(I2
(lp421
I147
atp422
s(I1
I50
tp423
(I2
(lp424
I104
atp425
s(I0
I38
tp426
(I2
(lp427
I121
atp428
s(I1
I40
tp429
(I2
(lp430
I94
atp431
s(I1
I19
tp432
(I2
(lp433
I157
atp434
s(I1
I39
tp435
(I2
(lp436
I93
atp437
s(I0
I41
tp438
(I2
(lp439
I118
atp440
s(I0
I30
tp441
(I2
(lp442
I129
atp443
s(I0
I34
tp444
(I2
(lp445
I125
atp446
s(I0
I23
tp447
(I2
(lp448
I136
atp449
s(I1
I31
tp450
(I2
(lp451
I85
atp452
s(I1
I35
tp453
(I2
(lp454
I89
atp455
s(I1
I22
tp456
(I2
(lp457
I160
atp458
s(I0
I26
tp459
(I2
(lp460
I133
atp461
s(I1
I12
tp462
(I2
(lp463
I150
atp464
s(I0
I52
tp465
(I2
(lp466
I107
atp467
s(I0
I46
tp468
(I2
(lp469
I113
atp470
s(I0
I19
tp471
(I2
(lp472
I140
atp473
s(I1
I27
tp474
(I2
(lp475
I165
atp476
s(I0
I13
tp477
(I2
(lp478
I146
atp479
s(I1
I49
tp480
(I2
(lp481
I103
atp482
s(I0
I39
tp483
(I2
(lp484
I120
atp485
s(I1
I47
tp486
(I2
(lp487
I101
atp488
s(I1
I18
tp489
(I2
(lp490
I156
atp491
s(I0
I48
tp492
(I2
(lp493
I111
atp494
s(I1
I38
tp495
(I2
(lp496
I92
atp497
s(I0
I42
tp498
(I2
(lp499
I117
atp500
s(I0
I31
tp501
(I2
(lp502
I128
atp503
s(I0
I35
tp504
(I2
(lp505
I124
atp506
s(I1
I43
tp507
(I2
(lp508
I97
atp509
s(I1
I30
tp510
(I2
(lp511
I84
atp512
s(I1
I52
tp513
(I2
(lp514
I106
atp515
ssb(dp516
I0
(I20
I18
tp517
sI1
(I20
I17
tp518
stp519
.